; Function Attrs: nounwind uwtable
define internal fastcc range(i32 0, 2) i32 @async_gen_init_hooks(ptr noundef %0) unnamed_addr #2 {
  %2 = getelementptr inbounds nuw i8, ptr %0, i64 64
  %3 = load i8, ptr %2, align 8, !tbaa !184
  %.not = icmp eq i8 %3, 0
  br i1 %.not, label %4, label %.critedge

4:                                                ; preds = %1
  store i8 1, ptr %2, align 8, !tbaa !184
  %5 = tail call align 8 ptr @llvm.threadlocal.address.p0(ptr align 8 @_Py_tss_tstate)
  %6 = load ptr, ptr %5, align 8, !tbaa !39
  %7 = getelementptr inbounds nuw i8, ptr %6, i64 200
  %8 = load ptr, ptr %7, align 8, !tbaa !185
  %.not19 = icmp eq ptr %8, null
  br i1 %.not19, label %15, label %9

9:                                                ; preds = %4
  %10 = load i32, ptr %8, align 8, !tbaa !4
  %11 = icmp slt i32 %10, 0
  br i1 %11, label %_Py_NewRef.exit, label %12

12:                                               ; preds = %9
  %13 = add nuw i32 %10, 1
  store i32 %13, ptr %8, align 8, !tbaa !4
  br label %_Py_NewRef.exit

_Py_NewRef.exit:                                  ; preds = %9, %12
  %14 = getelementptr inbounds nuw i8, ptr %0, i64 56
  store ptr %8, ptr %14, align 8, !tbaa !21
  br label %15

15:                                               ; preds = %_Py_NewRef.exit, %4
  %16 = getelementptr inbounds nuw i8, ptr %6, i64 192
  %17 = load ptr, ptr %16, align 8, !tbaa !186
  %.not20 = icmp eq ptr %17, null
  br i1 %.not20, label %.critedge, label %18

18:                                               ; preds = %15
  %19 = load i32, ptr %17, align 8, !tbaa !4
  %20 = icmp slt i32 %19, 0
  br i1 %20, label %Py_INCREF.exit, label %21

21:                                               ; preds = %18
  %22 = add nuw i32 %19, 1
  store i32 %22, ptr %17, align 8, !tbaa !4
  br label %Py_INCREF.exit

Py_INCREF.exit:                                   ; preds = %18, %21
  %23 = tail call ptr @PyObject_CallOneArg(ptr noundef nonnull %17, ptr noundef nonnull %0) #8
  %24 = load i32, ptr %17, align 8, !tbaa !4
  %.not.i22 = icmp sgt i32 %24, -1
  br i1 %.not.i22, label %25, label %Py_DECREF.exit23

25:                                               ; preds = %Py_INCREF.exit
  %26 = add nsw i32 %24, -1
  store i32 %26, ptr %17, align 8, !tbaa !4
  %27 = icmp eq i32 %26, 0
  br i1 %27, label %28, label %Py_DECREF.exit23

28:                                               ; preds = %25
  tail call void @_Py_Dealloc(ptr noundef nonnull %17) #8
  br label %Py_DECREF.exit23

Py_DECREF.exit23:                                 ; preds = %Py_INCREF.exit, %25, %28
  %.not21 = icmp eq ptr %23, null
  br i1 %.not21, label %.critedge, label %29

29:                                               ; preds = %Py_DECREF.exit23
  %30 = load i32, ptr %23, align 8, !tbaa !4
  %.not.i = icmp sgt i32 %30, -1
  br i1 %.not.i, label %31, label %.critedge

31:                                               ; preds = %29
  %32 = add nsw i32 %30, -1
  store i32 %32, ptr %23, align 8, !tbaa !4
  %33 = icmp eq i32 %32, 0
  br i1 %33, label %34, label %.critedge

34:                                               ; preds = %31
  tail call void @_Py_Dealloc(ptr noundef nonnull %23) #8
  br label %.critedge

.critedge:                                        ; preds = %34, %31, %29, %15, %Py_DECREF.exit23, %1
  %.0 = phi i32 [ 0, %1 ], [ 1, %Py_DECREF.exit23 ], [ 0, %15 ], [ 0, %29 ], [ 0, %31 ], [ 0, %34 ]
  ret i32 %.0
}